; Function Attrs: nofree norecurse nosync nounwind memory(read, argmem: readwrite, inaccessiblemem: none) uwtable
define void @Abc_ObjSortByDelay(ptr noundef readonly captures(none) %0, ptr noundef readonly captures(none) %1, i32 noundef %2, ptr noundef captures(none) %3) local_unnamed_addr #5 {
  %5 = getelementptr i8, ptr %1, i64 28
  %.val = load i32, ptr %5, align 4, !tbaa !33
  %6 = icmp sgt i32 %.val, 0
  br i1 %6, label %.lr.ph48, label %.critedge

.lr.ph48:                                         ; preds = %4
  %.val34 = load ptr, ptr %1, align 8, !tbaa !36
  %7 = getelementptr i8, ptr %1, i64 32
  %.val35 = load ptr, ptr %7, align 8, !tbaa !37
  %8 = getelementptr i8, ptr %.val34, i64 32
  %.val34.val = load ptr, ptr %8, align 8, !tbaa !13
  %9 = getelementptr i8, ptr %.val34.val, i64 8
  %.val34.val.val = load ptr, ptr %9, align 8, !tbaa !38
  %10 = getelementptr i8, ptr %0, i64 24
  %11 = sext i32 %2 to i64
  %12 = getelementptr inbounds nuw i8, ptr %0, i64 8
  %wide.trip.count = zext nneg i32 %.val to i64
  br label %13

13:                                               ; preds = %.lr.ph48, %.loopexit
  %indvars.iv = phi i64 [ 0, %.lr.ph48 ], [ %indvars.iv.next, %.loopexit ]
  %14 = getelementptr inbounds nuw i32, ptr %.val35, i64 %indvars.iv
  %15 = load i32, ptr %14, align 4, !tbaa !39
  %16 = sext i32 %15 to i64
  %17 = getelementptr inbounds ptr, ptr %.val34.val.val, i64 %16
  %18 = load ptr, ptr %17, align 8, !tbaa !40
  %indvars.iv.next = add nuw nsw i64 %indvars.iv, 1
  %19 = getelementptr inbounds nuw ptr, ptr %3, i64 %indvars.iv
  store ptr %18, ptr %19, align 8, !tbaa !41
  %20 = getelementptr i8, ptr %18, i64 20
  %.val36 = load i32, ptr %20, align 4
  %21 = and i32 %.val36, 15
  switch i32 %21, label %.preheader [
    i32 5, label %.loopexit
    i32 2, label %.loopexit
  ]

.preheader:                                       ; preds = %13
  %.not = icmp eq i64 %indvars.iv, 0
  br i1 %.not, label %.loopexit, label %.lr.ph

.lr.ph:                                           ; preds = %.preheader
  %.val37 = load ptr, ptr %10, align 8, !tbaa !32
  %invariant.gep = getelementptr [7 x float], ptr %.val37, i64 0, i64 %11
  %22 = load ptr, ptr %12, align 8, !tbaa !12
  %23 = getelementptr inbounds nuw i8, ptr %22, i64 16
  %.phi.trans.insert = getelementptr inbounds nuw [32 x float], ptr %23, i64 0, i64 %indvars.iv
  %.pre = load float, ptr %.phi.trans.insert, align 4, !tbaa !42
  br label %24

24:                                               ; preds = %.lr.ph, %42
  %25 = phi float [ %.pre, %.lr.ph ], [ %33, %42 ]
  %26 = phi ptr [ %18, %.lr.ph ], [ %43, %42 ]
  %indvars.iv49 = phi i64 [ %indvars.iv, %.lr.ph ], [ %indvars.iv.next50, %42 ]
  %indvars.iv.next50 = add nsw i64 %indvars.iv49, -1
  %27 = getelementptr inbounds nuw ptr, ptr %3, i64 %indvars.iv.next50
  %28 = load ptr, ptr %27, align 8, !tbaa !41
  %29 = getelementptr i8, ptr %28, i64 16
  %.val38 = load i32, ptr %29, align 8, !tbaa !43
  %30 = sext i32 %.val38 to i64
  %gep = getelementptr %struct.Abc_IffObj_t_, ptr %invariant.gep, i64 %30
  %31 = load float, ptr %gep, align 4, !tbaa !42
  %32 = getelementptr inbounds nuw [32 x float], ptr %23, i64 0, i64 %indvars.iv.next50
  %33 = load float, ptr %32, align 4, !tbaa !42
  %34 = fadd float %31, %33
  %35 = getelementptr i8, ptr %26, i64 16
  %.val40 = load i32, ptr %35, align 8, !tbaa !43
  %36 = sext i32 %.val40 to i64
  %gep45 = getelementptr %struct.Abc_IffObj_t_, ptr %invariant.gep, i64 %36
  %37 = load float, ptr %gep45, align 4, !tbaa !42
  %38 = fadd float %37, %25
  %39 = fcmp olt float %34, %38
  br i1 %39, label %40, label %42

40:                                               ; preds = %24
  %41 = getelementptr inbounds nuw ptr, ptr %3, i64 %indvars.iv49
  store ptr %26, ptr %27, align 8, !tbaa !41
  store ptr %28, ptr %41, align 8, !tbaa !41
  br label %42

42:                                               ; preds = %24, %40
  %43 = phi ptr [ %28, %24 ], [ %26, %40 ]
  %44 = icmp sgt i64 %indvars.iv49, 1
  br i1 %44, label %24, label %.loopexit, !llvm.loop !44

.loopexit:                                        ; preds = %42, %.preheader, %13, %13
  %exitcond.not = icmp eq i64 %indvars.iv.next, %wide.trip.count
  br i1 %exitcond.not, label %.critedge, label %13, !llvm.loop !46

.critedge:                                        ; preds = %.loopexit, %4
  ret void
}